; Function Attrs: nounwind uwtable
define internal void @collect_kex(ptr noundef %0, ptr noundef %1) #0 {
  %3 = tail call ptr @app_get0_propq() #6
  %4 = tail call ptr @app_get0_libctx() #6
  %5 = tail call ptr @EVP_KEYEXCH_get0_name(ptr noundef %0) #6
  %6 = tail call i32 @ERR_set_mark() #6
  %7 = tail call ptr @EVP_KEYEXCH_fetch(ptr noundef %4, ptr noundef %5, ptr noundef %3) #6
  %8 = tail call i32 @ERR_pop_to_mark() #6
  %9 = icmp eq ptr %7, null
  br i1 %9, label %is_keyexch_fetchable.exit.thread, label %10

10:                                               ; preds = %2
  tail call void @EVP_KEYEXCH_free(ptr noundef nonnull %7) #6
  %11 = tail call i32 @OPENSSL_sk_push(ptr noundef %1, ptr noundef %0) #6
  %12 = icmp sgt i32 %11, 0
  br i1 %12, label %13, label %is_keyexch_fetchable.exit.thread

13:                                               ; preds = %10
  %14 = tail call i32 @EVP_KEYEXCH_up_ref(ptr noundef %0) #6
  br label %is_keyexch_fetchable.exit.thread

is_keyexch_fetchable.exit.thread:                 ; preds = %2, %13, %10
  ret void
}